target datalayout = "e-m:e-p270:32:32-p271:32:32-p272:64:64-i64:64-i128:128-f80:128-n8:16:32:64-S128"
target triple = "x86_64-pc-linux-gnu"

%struct.mbedtls_cipher_definition_t = type { i32, ptr }
%struct.mbedtls_cipher_info_t = type { ptr, i32 }

@mbedtls_cipher_definitions = external constant [0 x %struct.mbedtls_cipher_definition_t], align 8

; Function Attrs: nounwind uwtable
define hidden ptr @mbedtls_cipher_info_from_string(ptr noundef %0) #0 {
  %2 = alloca ptr, align 8
  %3 = alloca ptr, align 8
  %4 = alloca ptr, align 8
  %5 = alloca i32, align 4
  store ptr %0, ptr %3, align 8, !tbaa !18
  call void @llvm.lifetime.start.p0(i64 8, ptr %4) #7
  %6 = load ptr, ptr %3, align 8, !tbaa !18
  %7 = icmp eq ptr null, %6
  br i1 %7, label %8, label %9

8:                                                ; preds = %1
  store ptr null, ptr %2, align 8
  store i32 1, ptr %5, align 4
  br label %33

9:                                                ; preds = %1
  store ptr @mbedtls_cipher_definitions, ptr %4, align 8, !tbaa !7
  br label %10

10:                                               ; preds = %29, %9
  %11 = load ptr, ptr %4, align 8, !tbaa !7
  %12 = getelementptr inbounds nuw %struct.mbedtls_cipher_definition_t, ptr %11, i32 0, i32 1
  %13 = load ptr, ptr %12, align 8, !tbaa !16
  %14 = icmp ne ptr %13, null
  br i1 %14, label %15, label %32

15:                                               ; preds = %10
  %16 = load ptr, ptr %4, align 8, !tbaa !7
  %17 = getelementptr inbounds nuw %struct.mbedtls_cipher_definition_t, ptr %16, i32 0, i32 1
  %18 = load ptr, ptr %17, align 8, !tbaa !16
  %19 = getelementptr inbounds nuw %struct.mbedtls_cipher_info_t, ptr %18, i32 0, i32 0
  %20 = load ptr, ptr %19, align 8, !tbaa !20
  %21 = load ptr, ptr %3, align 8, !tbaa !18
  %22 = call i32 @strcmp(ptr noundef %20, ptr noundef %21) #8
  %23 = icmp ne i32 %22, 0
  br i1 %23, label %28, label %24

24:                                               ; preds = %15
  %25 = load ptr, ptr %4, align 8, !tbaa !7
  %26 = getelementptr inbounds nuw %struct.mbedtls_cipher_definition_t, ptr %25, i32 0, i32 1
  %27 = load ptr, ptr %26, align 8, !tbaa !16
  store ptr %27, ptr %2, align 8
  store i32 1, ptr %5, align 4
  br label %33

28:                                               ; preds = %15
  br label %29

29:                                               ; preds = %28
  %30 = load ptr, ptr %4, align 8, !tbaa !7
  %31 = getelementptr inbounds nuw %struct.mbedtls_cipher_definition_t, ptr %30, i32 1
  store ptr %31, ptr %4, align 8, !tbaa !7
  br label %10, !llvm.loop !22

32:                                               ; preds = %10
  store ptr null, ptr %2, align 8
  store i32 1, ptr %5, align 4
  br label %33

33:                                               ; preds = %32, %24, %8
  call void @llvm.lifetime.end.p0(i64 8, ptr %4) #7
  %34 = load ptr, ptr %2, align 8
  ret ptr %34
}